target datalayout = "e-m:e-p270:32:32-p271:32:32-p272:64:64-i64:64-i128:128-f80:128-n8:16:32:64-S128"
target triple = "x86_64-pc-linux-gnu"

@hf_rsl_ie_length = internal global i32 0, align 4
@hf_rsl_phy_ctx_ie_id = internal global i32 0, align 4
@hf_rsl_phy_ctx_ab_rx_lvl = internal global i32 0, align 4
@hf_rsl_phy_ctx_ab_err_bits = internal global i32 0, align 4
@ett_phy_ctx_ab_rx_lvl_err_bits = internal global i32 0, align 4
@.str.771 = private unnamed_addr constant [22 x i8] c"AB RxLevel&ErrBits IE\00", align 1

; Function Attrs: null_pointer_is_valid sspstrong uwtable
define internal i32 @dissect_rsl_phy_ctx_ab_rx_lvl_err_bits(ptr noundef %0, ptr noundef %1, ptr noundef %2, i32 noundef %3) #0 {
  %5 = alloca ptr, align 8
  %6 = alloca ptr, align 8
  %7 = alloca ptr, align 8
  %8 = alloca i32, align 4
  %9 = alloca ptr, align 8
  %10 = alloca ptr, align 8
  %11 = alloca i32, align 4
  store ptr %0, ptr %5, align 8
  store ptr %1, ptr %6, align 8
  store ptr %2, ptr %7, align 8
  store i32 %3, ptr %8, align 4
  call void @llvm.lifetime.start.p0(i64 8, ptr %9) #6
  call void @llvm.lifetime.start.p0(i64 8, ptr %10) #6
  call void @llvm.lifetime.start.p0(i64 4, ptr %11) #6
  %12 = load ptr, ptr %7, align 8
  %13 = load ptr, ptr %5, align 8
  %14 = load i32, ptr %8, align 4
  %15 = load i32, ptr @ett_phy_ctx_ab_rx_lvl_err_bits, align 4
  %16 = call ptr @proto_tree_add_subtree(ptr noundef %12, ptr noundef %13, i32 noundef %14, i32 noundef 0, i32 noundef %15, ptr noundef %10, ptr noundef @.str.771)
  store ptr %16, ptr %9, align 8
  %17 = load ptr, ptr %9, align 8
  %18 = load i32, ptr @hf_rsl_phy_ctx_ie_id, align 4
  %19 = load ptr, ptr %5, align 8
  %20 = load i32, ptr %8, align 4
  %21 = call ptr @proto_tree_add_item(ptr noundef %17, i32 noundef %18, ptr noundef %19, i32 noundef %20, i32 noundef 1, i32 noundef 0)
  %22 = load i32, ptr %8, align 4
  %23 = add i32 %22, 1
  store i32 %23, ptr %8, align 4
  %24 = load ptr, ptr %5, align 8
  %25 = load i32, ptr %8, align 4
  %26 = call zeroext i8 @tvb_get_uint8(ptr noundef %24, i32 noundef %25)
  %27 = zext i8 %26 to i32
  store i32 %27, ptr %11, align 4
  %28 = load ptr, ptr %10, align 8
  %29 = load i32, ptr %11, align 4
  %30 = add i32 %29, 2
  call void @proto_item_set_len(ptr noundef %28, i32 noundef %30)
  %31 = load ptr, ptr %9, align 8
  %32 = load i32, ptr @hf_rsl_ie_length, align 4
  %33 = load ptr, ptr %5, align 8
  %34 = load i32, ptr %8, align 4
  %35 = call ptr @proto_tree_add_item(ptr noundef %31, i32 noundef %32, ptr noundef %33, i32 noundef %34, i32 noundef 1, i32 noundef 0)
  %36 = load i32, ptr %8, align 4
  %37 = add i32 %36, 1
  store i32 %37, ptr %8, align 4
  %38 = load ptr, ptr %9, align 8
  %39 = load i32, ptr @hf_rsl_phy_ctx_ab_rx_lvl, align 4
  %40 = load ptr, ptr %5, align 8
  %41 = load i32, ptr %8, align 4
  %42 = call ptr @proto_tree_add_item(ptr noundef %38, i32 noundef %39, ptr noundef %40, i32 noundef %41, i32 noundef 1, i32 noundef 0)
  %43 = load i32, ptr %8, align 4
  %44 = add i32 %43, 1
  store i32 %44, ptr %8, align 4
  %45 = load ptr, ptr %9, align 8
  %46 = load i32, ptr @hf_rsl_phy_ctx_ab_err_bits, align 4
  %47 = load ptr, ptr %5, align 8
  %48 = load i32, ptr %8, align 4
  %49 = call ptr @proto_tree_add_item(ptr noundef %45, i32 noundef %46, ptr noundef %47, i32 noundef %48, i32 noundef 1, i32 noundef 0)
  %50 = load i32, ptr %8, align 4
  %51 = add i32 %50, 1
  store i32 %51, ptr %8, align 4
  %52 = load i32, ptr %8, align 4
  call void @llvm.lifetime.end.p0(i64 4, ptr %11) #6
  call void @llvm.lifetime.end.p0(i64 8, ptr %10) #6
  call void @llvm.lifetime.end.p0(i64 8, ptr %9) #6
  ret i32 %52
}