; Function Attrs: null_pointer_is_valid sspstrong uwtable
define internal fastcc noundef i32 @dissect_rsl_phy_ctx_ab_rx_lvl_err_bits(ptr noundef %0, ptr noundef %1, i32 noundef %2) unnamed_addr #0 {
  %4 = alloca ptr, align 8
  call void @llvm.lifetime.start.p0(i64 8, ptr nonnull %4) #6
  %5 = load i32, ptr @ett_phy_ctx_ab_rx_lvl_err_bits, align 4
  %6 = call ptr @proto_tree_add_subtree(ptr noundef %1, ptr noundef %0, i32 noundef %2, i32 noundef 0, i32 noundef %5, ptr noundef nonnull %4, ptr noundef nonnull @.str.771)
  %7 = load i32, ptr @hf_rsl_phy_ctx_ie_id, align 4
  %8 = call ptr @proto_tree_add_item(ptr noundef %6, i32 noundef %7, ptr noundef %0, i32 noundef %2, i32 noundef 1, i32 noundef 0)
  %9 = add i32 %2, 1
  %10 = call zeroext i8 @tvb_get_uint8(ptr noundef %0, i32 noundef %9)
  %11 = zext i8 %10 to i32
  %12 = load ptr, ptr %4, align 8
  %13 = add nuw nsw i32 %11, 2
  call void @proto_item_set_len(ptr noundef %12, i32 noundef %13)
  %14 = load i32, ptr @hf_rsl_ie_length, align 4
  %15 = call ptr @proto_tree_add_item(ptr noundef %6, i32 noundef %14, ptr noundef %0, i32 noundef %9, i32 noundef 1, i32 noundef 0)
  %16 = add i32 %2, 2
  %17 = load i32, ptr @hf_rsl_phy_ctx_ab_rx_lvl, align 4
  %18 = call ptr @proto_tree_add_item(ptr noundef %6, i32 noundef %17, ptr noundef %0, i32 noundef %16, i32 noundef 1, i32 noundef 0)
  %19 = add i32 %2, 3
  %20 = load i32, ptr @hf_rsl_phy_ctx_ab_err_bits, align 4
  %21 = call ptr @proto_tree_add_item(ptr noundef %6, i32 noundef %20, ptr noundef %0, i32 noundef %19, i32 noundef 1, i32 noundef 0)
  %22 = add i32 %2, 4
  call void @llvm.lifetime.end.p0(i64 8, ptr nonnull %4) #6
  ret i32 %22
}